; Function Attrs: nofree norecurse nosync nounwind memory(argmem: readwrite) uwtable
define internal void @spatial_compensation_11(ptr noalias noundef readonly captures(none) %0, ptr noalias noundef writeonly captures(none) %1, i64 noundef %2) #1 {
  %invariant.gep = getelementptr inbounds nuw i8, ptr %0, i64 17
  br label %.preheader

.preheader:                                       ; preds = %3, %21
  %indvars.iv19 = phi i64 [ 0, %3 ], [ %indvars.iv.next20, %21 ]
  %.01416 = phi ptr [ %1, %3 ], [ %22, %21 ]
  %4 = sub nuw nsw i64 15, %indvars.iv19
  %5 = getelementptr inbounds nuw i8, ptr %0, i64 %4
  %6 = load i8, ptr %5, align 1, !tbaa !14
  %7 = zext i8 %6 to i16
  %8 = trunc i64 %indvars.iv19 to i16
  %9 = mul i16 %8, %7
  %10 = add i16 %9, 4
  %11 = trunc i64 %indvars.iv19 to i16
  %12 = sub i16 8, %11
  br label %13

13:                                               ; preds = %.preheader, %13
  %indvars.iv = phi i64 [ 0, %.preheader ], [ %indvars.iv.next, %13 ]
  %gep = getelementptr inbounds nuw i8, ptr %invariant.gep, i64 %indvars.iv
  %14 = load i8, ptr %gep, align 1, !tbaa !14
  %15 = zext i8 %14 to i16
  %16 = mul i16 %12, %15
  %17 = add i16 %10, %16
  %18 = lshr i16 %17, 3
  %19 = trunc i16 %18 to i8
  %20 = getelementptr inbounds nuw i8, ptr %.01416, i64 %indvars.iv
  store i8 %19, ptr %20, align 1, !tbaa !14
  %indvars.iv.next = add nuw nsw i64 %indvars.iv, 1
  %exitcond.not = icmp eq i64 %indvars.iv.next, 8
  br i1 %exitcond.not, label %21, label %13, !llvm.loop !46

21:                                               ; preds = %13
  %22 = getelementptr inbounds i8, ptr %.01416, i64 %2
  %indvars.iv.next20 = add nuw nsw i64 %indvars.iv19, 1
  %exitcond22.not = icmp eq i64 %indvars.iv.next20, 8
  br i1 %exitcond22.not, label %23, label %.preheader, !llvm.loop !47

23:                                               ; preds = %21
  ret void
}